; Function Attrs: nofree norecurse nosync nounwind memory(read, inaccessiblemem: none) uwtable
define i32 @Gia_ManHashAndTry(ptr noundef readonly captures(none) %0, i32 noundef %1, i32 noundef %2) local_unnamed_addr #0 {
  %4 = icmp slt i32 %1, 2
  br i1 %4, label %5, label %7

5:                                                ; preds = %3
  %.not32 = icmp eq i32 %1, 0
  %6 = select i1 %.not32, i32 0, i32 %2
  br label %Gia_ManHashFind.exit.thread

7:                                                ; preds = %3
  %8 = icmp slt i32 %2, 2
  br i1 %8, label %9, label %11

9:                                                ; preds = %7
  %.not31 = icmp eq i32 %2, 0
  %10 = select i1 %.not31, i32 0, i32 %1
  br label %Gia_ManHashFind.exit.thread

11:                                               ; preds = %7
  %12 = icmp eq i32 %1, %2
  br i1 %12, label %Gia_ManHashFind.exit.thread, label %13

13:                                               ; preds = %11
  %14 = xor i32 %2, %1
  %15 = icmp eq i32 %14, 1
  br i1 %15, label %Gia_ManHashFind.exit.thread, label %16

16:                                               ; preds = %13
  %spec.select = tail call i32 @llvm.umin.i32(i32 %1, i32 %2)
  %spec.select33 = tail call i32 @llvm.umax.i32(i32 %1, i32 %2)
  %17 = getelementptr i8, ptr %0, i64 100
  %.val.i = load i32, ptr %17, align 4, !tbaa !3
  %18 = lshr i32 %spec.select, 1
  %19 = mul nuw nsw i32 %18, 7937
  %20 = lshr i32 %spec.select33, 1
  %21 = mul nuw nsw i32 %20, 2971
  %22 = trunc i32 %spec.select to i1
  %23 = select i1 %22, i32 911, i32 0
  %24 = trunc i32 %spec.select33 to i1
  %25 = select i1 %24, i32 353, i32 0
  %26 = add nsw i32 %19, -2011
  %27 = add nuw nsw i32 %26, %23
  %28 = add nuw i32 %27, %21
  %29 = add nuw i32 %28, %25
  %30 = urem i32 %29, %.val.i
  %31 = getelementptr i8, ptr %0, i64 104
  %.val23.i = load ptr, ptr %31, align 8, !tbaa !10
  %32 = sext i32 %30 to i64
  %33 = getelementptr inbounds i32, ptr %.val23.i, i64 %32
  %34 = getelementptr inbounds nuw i8, ptr %0, i64 40
  %35 = load i32, ptr %33, align 4, !tbaa !11
  %.not30.i = icmp eq i32 %35, 0
  br i1 %.not30.i, label %Gia_ManHashFind.exit.thread, label %.lr.ph.i

.lr.ph.i:                                         ; preds = %16
  %36 = getelementptr i8, ptr %0, i64 32
  %.val25.i = load ptr, ptr %36, align 8, !tbaa !12
  %37 = getelementptr i8, ptr %0, i64 88
  br label %38

38:                                               ; preds = %68, %.lr.ph.i
  %.pr = phi i32 [ %35, %.lr.ph.i ], [ %70, %68 ]
  %39 = sext i32 %.pr to i64
  %40 = getelementptr inbounds %struct.Gia_Obj_t_, ptr %.val25.i, i64 %39
  %.val26.i = load i64, ptr %40, align 4
  %41 = trunc i64 %.val26.i to i32
  %42 = and i32 %41, 536870911
  %43 = sub nsw i32 %.pr, %42
  %44 = lshr i32 %41, 29
  %45 = and i32 %44, 1
  %46 = shl nsw i32 %43, 1
  %47 = or disjoint i32 %46, %45
  %48 = icmp eq i32 %47, %spec.select
  br i1 %48, label %49, label %68

49:                                               ; preds = %38
  %50 = lshr i64 %.val26.i, 32
  %51 = trunc nuw i64 %50 to i32
  %52 = and i32 %51, 536870911
  %53 = sub nsw i32 %.pr, %52
  %54 = lshr i64 %.val26.i, 61
  %55 = trunc nuw nsw i64 %54 to i32
  %56 = and i32 %55, 1
  %57 = shl nsw i32 %53, 1
  %58 = or disjoint i32 %57, %56
  %59 = icmp eq i32 %58, %spec.select33
  br i1 %59, label %60, label %68

60:                                               ; preds = %49
  %61 = load ptr, ptr %34, align 8, !tbaa !31
  %62 = icmp eq ptr %61, null
  br i1 %62, label %Gia_ManHashFind.exit, label %Gia_ObjFaninLit2p.exit.i

Gia_ObjFaninLit2p.exit.i:                         ; preds = %60
  %63 = shl nsw i64 %39, 2
  %64 = getelementptr inbounds i8, ptr %61, i64 %63
  %65 = load i32, ptr %64, align 4, !tbaa !11
  %66 = add i32 %65, 1
  %67 = icmp ult i32 %66, 2
  br i1 %67, label %Gia_ManHashFind.exit, label %68

68:                                               ; preds = %Gia_ObjFaninLit2p.exit.i, %49, %38
  %.val24.i = load ptr, ptr %37, align 8, !tbaa !10
  %69 = getelementptr inbounds i32, ptr %.val24.i, i64 %39
  %70 = load i32, ptr %69, align 4, !tbaa !11
  %.not.i = icmp eq i32 %70, 0
  br i1 %.not.i, label %Gia_ManHashFind.exit.thread, label %38, !llvm.loop !32

Gia_ManHashFind.exit:                             ; preds = %60, %Gia_ObjFaninLit2p.exit.i
  %71 = shl nsw i32 %.pr, 1
  br label %Gia_ManHashFind.exit.thread

Gia_ManHashFind.exit.thread:                      ; preds = %68, %Gia_ManHashFind.exit, %16, %13, %11, %9, %5
  %.0 = phi i32 [ %6, %5 ], [ %10, %9 ], [ %1, %11 ], [ 0, %13 ], [ -1, %16 ], [ %71, %Gia_ManHashFind.exit ], [ -1, %68 ]
  ret i32 %.0
}